; Function Attrs: mustprogress uwtable
define void @_ZNK5ZXing7Content4utfWB5cxx11Ev(ptr dead_on_unwind noalias writable sret(%"class.std::__cxx11::basic_string.13") align 8 %0, ptr noundef nonnull align 8 dereferenceable(54) %1) local_unnamed_addr #0 align 2 personality ptr @__gxx_personality_v0 {
  %3 = alloca %"class.std::__cxx11::basic_string", align 8
  call void @llvm.lifetime.start.p0(i64 32, ptr nonnull %3) #19
  call void @_ZNK5ZXing7Content6renderB5cxx11Eb(ptr dead_on_unwind nonnull writable sret(%"class.std::__cxx11::basic_string") align 8 %3, ptr noundef nonnull align 8 dereferenceable(54) %1, i1 noundef zeroext false)
  %4 = load ptr, ptr %3, align 8, !tbaa !11
  %5 = getelementptr inbounds nuw i8, ptr %3, i64 8
  %6 = load i64, ptr %5, align 8, !tbaa !15
  invoke void @_ZN5ZXing8FromUtf8B5cxx11ESt17basic_string_viewIcSt11char_traitsIcEE(ptr dead_on_unwind writable sret(%"class.std::__cxx11::basic_string.13") align 8 %0, i64 %6, ptr %4)
          to label %7 unwind label %15

7:                                                ; preds = %2
  %8 = load ptr, ptr %3, align 8, !tbaa !11
  %9 = getelementptr inbounds nuw i8, ptr %3, i64 16
  %10 = icmp eq ptr %8, %9
  br i1 %10, label %_ZNKSt7__cxx1112basic_stringIcSt11char_traitsIcESaIcEE11_M_is_localEv.exit.thread.i.i, label %_ZNKSt7__cxx1112basic_stringIcSt11char_traitsIcESaIcEE11_M_is_localEv.exit.i.i

_ZNKSt7__cxx1112basic_stringIcSt11char_traitsIcESaIcEE11_M_is_localEv.exit.thread.i.i: ; preds = %7
  %11 = load i64, ptr %5, align 8, !tbaa !15
  %12 = icmp ult i64 %11, 16
  call void @llvm.assume(i1 %12)
  br label %_ZNSt7__cxx1112basic_stringIcSt11char_traitsIcESaIcEED2Ev.exit

_ZNKSt7__cxx1112basic_stringIcSt11char_traitsIcESaIcEE11_M_is_localEv.exit.i.i: ; preds = %7
  %13 = load i64, ptr %9, align 8, !tbaa !14
  %14 = add i64 %13, 1
  call void @_ZdlPvm(ptr noundef %8, i64 noundef %14) #22
  br label %_ZNSt7__cxx1112basic_stringIcSt11char_traitsIcESaIcEED2Ev.exit

_ZNSt7__cxx1112basic_stringIcSt11char_traitsIcESaIcEED2Ev.exit: ; preds = %_ZNKSt7__cxx1112basic_stringIcSt11char_traitsIcESaIcEE11_M_is_localEv.exit.thread.i.i, %_ZNKSt7__cxx1112basic_stringIcSt11char_traitsIcESaIcEE11_M_is_localEv.exit.i.i
  call void @llvm.lifetime.end.p0(i64 32, ptr nonnull %3) #19
  ret void

15:                                               ; preds = %2
  %16 = landingpad { ptr, i32 }
          cleanup
  %17 = load ptr, ptr %3, align 8, !tbaa !11
  %18 = getelementptr inbounds nuw i8, ptr %3, i64 16
  %19 = icmp eq ptr %17, %18
  br i1 %19, label %_ZNKSt7__cxx1112basic_stringIcSt11char_traitsIcESaIcEE11_M_is_localEv.exit.thread.i.i3, label %_ZNKSt7__cxx1112basic_stringIcSt11char_traitsIcESaIcEE11_M_is_localEv.exit.i.i2

_ZNKSt7__cxx1112basic_stringIcSt11char_traitsIcESaIcEE11_M_is_localEv.exit.thread.i.i3: ; preds = %15
  %20 = load i64, ptr %5, align 8, !tbaa !15
  %21 = icmp ult i64 %20, 16
  call void @llvm.assume(i1 %21)
  br label %_ZNSt7__cxx1112basic_stringIcSt11char_traitsIcESaIcEED2Ev.exit4

_ZNKSt7__cxx1112basic_stringIcSt11char_traitsIcESaIcEE11_M_is_localEv.exit.i.i2: ; preds = %15
  %22 = load i64, ptr %18, align 8, !tbaa !14
  %23 = add i64 %22, 1
  call void @_ZdlPvm(ptr noundef %17, i64 noundef %23) #22
  br label %_ZNSt7__cxx1112basic_stringIcSt11char_traitsIcESaIcEED2Ev.exit4

_ZNSt7__cxx1112basic_stringIcSt11char_traitsIcESaIcEED2Ev.exit4: ; preds = %_ZNKSt7__cxx1112basic_stringIcSt11char_traitsIcESaIcEE11_M_is_localEv.exit.thread.i.i3, %_ZNKSt7__cxx1112basic_stringIcSt11char_traitsIcESaIcEE11_M_is_localEv.exit.i.i2
  call void @llvm.lifetime.end.p0(i64 32, ptr nonnull %3) #19
  resume { ptr, i32 } %16
}